; Function Attrs: mustprogress nofree nounwind uwtable
define hidden noundef zeroext i1 @_ZN10duckdb_re212re2_internal5ParseIfEEbPKcmPT_(ptr noundef readonly captures(none) %0, i64 noundef %1, ptr noundef writeonly captures(address_is_null) %2) local_unnamed_addr #16 {
  %4 = alloca [201 x i8], align 16
  %5 = alloca ptr, align 8
  %6 = icmp eq i64 %1, 0
  br i1 %6, label %53, label %7

7:                                                ; preds = %3
  call void @llvm.lifetime.start.p0(i64 201, ptr nonnull %4) #31
  %8 = load i8, ptr %0, align 1, !tbaa !26
  %9 = sext i8 %8 to i32
  %10 = tail call i32 @isspace(i32 noundef %9) #32
  %.not.i = icmp eq i32 %10, 0
  br i1 %.not.i, label %.critedge.i, label %.preheader78.i

.preheader78.i:                                   ; preds = %7, %14
  %.182.i = phi i64 [ %15, %14 ], [ %1, %7 ]
  %.14381.i = phi ptr [ %16, %14 ], [ %0, %7 ]
  %11 = load i8, ptr %.14381.i, align 1, !tbaa !26
  %12 = sext i8 %11 to i32
  %13 = tail call i32 @isspace(i32 noundef %12) #32
  %.not52.i = icmp eq i32 %13, 0
  br i1 %.not52.i, label %.critedge.i, label %14

14:                                               ; preds = %.preheader78.i
  %15 = add i64 %.182.i, -1
  %16 = getelementptr inbounds nuw i8, ptr %.14381.i, i64 1
  %.not51.i = icmp eq i64 %15, 0
  br i1 %.not51.i, label %.thread76.i, label %.preheader78.i, !llvm.loop !202

.critedge.i:                                      ; preds = %.preheader78.i, %7
  %17 = phi i8 [ %8, %7 ], [ %11, %.preheader78.i ]
  %.042.ph.i = phi ptr [ %0, %7 ], [ %.14381.i, %.preheader78.i ]
  %.039.ph.i = phi i64 [ %1, %7 ], [ %.182.i, %.preheader78.i ]
  %18 = icmp eq i8 %17, 45
  %.244.idx.i = zext i1 %18 to i64
  %.244.i = getelementptr inbounds nuw i8, ptr %.042.ph.i, i64 %.244.idx.i
  %19 = sext i1 %18 to i64
  %.2.i = add i64 %.039.ph.i, %19
  %20 = icmp ugt i64 %.2.i, 2
  br i1 %20, label %21, label %.critedge2.i

21:                                               ; preds = %.critedge.i
  %22 = load i8, ptr %.244.i, align 1, !tbaa !26
  %23 = icmp eq i8 %22, 48
  br i1 %23, label %24, label %.critedge2.i

24:                                               ; preds = %21
  %25 = getelementptr inbounds nuw i8, ptr %.244.i, i64 1
  %26 = load i8, ptr %25, align 1, !tbaa !26
  %27 = icmp eq i8 %26, 48
  br i1 %27, label %.preheader.preheader.i, label %.critedge2.i

.preheader.preheader.i:                           ; preds = %24
  %28 = getelementptr i8, ptr %.042.ph.i, i64 %.2.i
  %29 = getelementptr i8, ptr %28, i64 %.244.idx.i
  %scevgep.i = getelementptr i8, ptr %29, i64 -2
  br label %.preheader.i

.preheader.i:                                     ; preds = %33, %.preheader.preheader.i
  %.446.i = phi ptr [ %35, %33 ], [ %.244.i, %.preheader.preheader.i ]
  %.4.i = phi i64 [ %34, %33 ], [ %.2.i, %.preheader.preheader.i ]
  %30 = getelementptr inbounds nuw i8, ptr %.446.i, i64 2
  %31 = load i8, ptr %30, align 1, !tbaa !26
  %32 = icmp eq i8 %31, 48
  br i1 %32, label %33, label %.critedge2.i

33:                                               ; preds = %.preheader.i
  %34 = add i64 %.4.i, -1
  %35 = getelementptr inbounds nuw i8, ptr %.446.i, i64 1
  %.old3.i = icmp ugt i64 %34, 2
  br i1 %.old3.i, label %.preheader.i, label %.critedge2.i

.critedge2.i:                                     ; preds = %33, %.preheader.i, %24, %21, %.critedge.i
  %.345.i = phi ptr [ %.244.i, %24 ], [ %.244.i, %21 ], [ %.244.i, %.critedge.i ], [ %scevgep.i, %33 ], [ %.446.i, %.preheader.i ]
  %.3.i = phi i64 [ %.2.i, %24 ], [ %.2.i, %21 ], [ %.2.i, %.critedge.i ], [ 2, %33 ], [ %.4.i, %.preheader.i ]
  %36 = add i64 %.3.i, %.244.idx.i
  %37 = icmp ugt i64 %36, 200
  br i1 %37, label %_ZN10duckdb_re212re2_internalL15TerminateNumberEPcmPKcPmb.exit, label %38

38:                                               ; preds = %.critedge2.i
  %39 = getelementptr inbounds i8, ptr %.345.i, i64 %19
  call void @llvm.memmove.p0.p0.i64(ptr nonnull align 16 %4, ptr nonnull align 1 %39, i64 %36, i1 false)
  br i1 %18, label %40, label %.thread76.i

40:                                               ; preds = %38
  store i8 45, ptr %4, align 16, !tbaa !26
  br label %.thread76.i

.thread76.i:                                      ; preds = %14, %40, %38
  %41 = phi i64 [ %36, %40 ], [ %36, %38 ], [ 0, %14 ]
  %42 = getelementptr inbounds nuw i8, ptr %4, i64 %41
  store i8 0, ptr %42, align 1, !tbaa !26
  br label %_ZN10duckdb_re212re2_internalL15TerminateNumberEPcmPKcPmb.exit

_ZN10duckdb_re212re2_internalL15TerminateNumberEPcmPKcPmb.exit: ; preds = %.critedge2.i, %.thread76.i
  %.010 = phi i64 [ %1, %.critedge2.i ], [ %41, %.thread76.i ]
  %.040.i = phi ptr [ @.str.8, %.critedge2.i ], [ %4, %.thread76.i ]
  call void @llvm.lifetime.start.p0(i64 8, ptr nonnull %5) #31
  %43 = tail call ptr @__errno_location() #37
  store i32 0, ptr %43, align 4, !tbaa !3
  %44 = call float @strtof(ptr noundef nonnull %.040.i, ptr noundef nonnull %5) #31
  %45 = load ptr, ptr %5, align 8, !tbaa !175
  %46 = getelementptr inbounds nuw i8, ptr %.040.i, i64 %.010
  %.not = icmp eq ptr %45, %46
  br i1 %.not, label %47, label %52

47:                                               ; preds = %_ZN10duckdb_re212re2_internalL15TerminateNumberEPcmPKcPmb.exit
  %48 = load i32, ptr %43, align 4, !tbaa !3
  %.not8 = icmp eq i32 %48, 0
  br i1 %.not8, label %49, label %52

49:                                               ; preds = %47
  %50 = icmp eq ptr %2, null
  br i1 %50, label %52, label %51

51:                                               ; preds = %49
  store float %44, ptr %2, align 4, !tbaa !203
  br label %52

52:                                               ; preds = %49, %47, %_ZN10duckdb_re212re2_internalL15TerminateNumberEPcmPKcPmb.exit, %51
  %.1 = phi i1 [ true, %51 ], [ false, %_ZN10duckdb_re212re2_internalL15TerminateNumberEPcmPKcPmb.exit ], [ false, %47 ], [ true, %49 ]
  call void @llvm.lifetime.end.p0(i64 8, ptr nonnull %5) #31
  call void @llvm.lifetime.end.p0(i64 201, ptr nonnull %4) #31
  br label %53

53:                                               ; preds = %3, %52
  %.0 = phi i1 [ %.1, %52 ], [ false, %3 ]
  ret i1 %.0
}